target datalayout = "e-m:e-p270:32:32-p271:32:32-p272:64:64-i64:64-i128:128-f80:128-n8:16:32:64-S128"
target triple = "x86_64-pc-linux-gnu"

; Function Attrs: nounwind sspstrong uwtable
define internal i64 @fun_so_from_utf_16be(ptr noundef %0, ptr noundef %1, i64 noundef %2, ptr noundef %3, i64 noundef %4) #0 {
  %6 = alloca i64, align 8
  %7 = alloca ptr, align 8
  %8 = alloca ptr, align 8
  %9 = alloca i64, align 8
  %10 = alloca ptr, align 8
  %11 = alloca i64, align 8
  %12 = alloca i32, align 4
  store ptr %0, ptr %7, align 8, !tbaa !6
  store ptr %1, ptr %8, align 8, !tbaa !10
  store i64 %2, ptr %9, align 8, !tbaa !12
  store ptr %3, ptr %10, align 8, !tbaa !10
  store i64 %4, ptr %11, align 8, !tbaa !12
  %13 = load ptr, ptr %8, align 8, !tbaa !10
  %14 = getelementptr inbounds i8, ptr %13, i64 0
  %15 = load i8, ptr %14, align 1, !tbaa !14
  %16 = icmp ne i8 %15, 0
  br i1 %16, label %29, label %17

17:                                               ; preds = %5
  %18 = load ptr, ptr %8, align 8, !tbaa !10
  %19 = getelementptr inbounds i8, ptr %18, i64 1
  %20 = load i8, ptr %19, align 1, !tbaa !14
  %21 = zext i8 %20 to i32
  %22 = icmp slt i32 %21, 128
  br i1 %22, label %23, label %29

23:                                               ; preds = %17
  %24 = load ptr, ptr %8, align 8, !tbaa !10
  %25 = getelementptr inbounds i8, ptr %24, i64 1
  %26 = load i8, ptr %25, align 1, !tbaa !14
  %27 = load ptr, ptr %10, align 8, !tbaa !10
  %28 = getelementptr inbounds i8, ptr %27, i64 0
  store i8 %26, ptr %28, align 1, !tbaa !14
  store i64 1, ptr %6, align 8
  br label %168

29:                                               ; preds = %17, %5
  %30 = load ptr, ptr %8, align 8, !tbaa !10
  %31 = getelementptr inbounds i8, ptr %30, i64 0
  %32 = load i8, ptr %31, align 1, !tbaa !14
  %33 = zext i8 %32 to i32
  %34 = icmp slt i32 %33, 8
  br i1 %34, label %35, label %60

35:                                               ; preds = %29
  %36 = load ptr, ptr %8, align 8, !tbaa !10
  %37 = getelementptr inbounds i8, ptr %36, i64 0
  %38 = load i8, ptr %37, align 1, !tbaa !14
  %39 = zext i8 %38 to i32
  %40 = shl i32 %39, 2
  %41 = or i32 192, %40
  %42 = load ptr, ptr %8, align 8, !tbaa !10
  %43 = getelementptr inbounds i8, ptr %42, i64 1
  %44 = load i8, ptr %43, align 1, !tbaa !14
  %45 = zext i8 %44 to i32
  %46 = ashr i32 %45, 6
  %47 = or i32 %41, %46
  %48 = trunc i32 %47 to i8
  %49 = load ptr, ptr %10, align 8, !tbaa !10
  %50 = getelementptr inbounds i8, ptr %49, i64 0
  store i8 %48, ptr %50, align 1, !tbaa !14
  %51 = load ptr, ptr %8, align 8, !tbaa !10
  %52 = getelementptr inbounds i8, ptr %51, i64 1
  %53 = load i8, ptr %52, align 1, !tbaa !14
  %54 = zext i8 %53 to i32
  %55 = and i32 %54, 63
  %56 = or i32 128, %55
  %57 = trunc i32 %56 to i8
  %58 = load ptr, ptr %10, align 8, !tbaa !10
  %59 = getelementptr inbounds i8, ptr %58, i64 1
  store i8 %57, ptr %59, align 1, !tbaa !14
  store i64 2, ptr %6, align 8
  br label %168

60:                                               ; preds = %29
  %61 = load ptr, ptr %8, align 8, !tbaa !10
  %62 = getelementptr inbounds i8, ptr %61, i64 0
  %63 = load i8, ptr %62, align 1, !tbaa !14
  %64 = zext i8 %63 to i32
  %65 = and i32 %64, 248
  %66 = icmp ne i32 %65, 216
  br i1 %66, label %67, label %102

67:                                               ; preds = %60
  %68 = load ptr, ptr %8, align 8, !tbaa !10
  %69 = getelementptr inbounds i8, ptr %68, i64 0
  %70 = load i8, ptr %69, align 1, !tbaa !14
  %71 = zext i8 %70 to i32
  %72 = ashr i32 %71, 4
  %73 = or i32 224, %72
  %74 = trunc i32 %73 to i8
  %75 = load ptr, ptr %10, align 8, !tbaa !10
  %76 = getelementptr inbounds i8, ptr %75, i64 0
  store i8 %74, ptr %76, align 1, !tbaa !14
  %77 = load ptr, ptr %8, align 8, !tbaa !10
  %78 = getelementptr inbounds i8, ptr %77, i64 0
  %79 = load i8, ptr %78, align 1, !tbaa !14
  %80 = zext i8 %79 to i32
  %81 = and i32 %80, 15
  %82 = shl i32 %81, 2
  %83 = or i32 128, %82
  %84 = load ptr, ptr %8, align 8, !tbaa !10
  %85 = getelementptr inbounds i8, ptr %84, i64 1
  %86 = load i8, ptr %85, align 1, !tbaa !14
  %87 = zext i8 %86 to i32
  %88 = ashr i32 %87, 6
  %89 = or i32 %83, %88
  %90 = trunc i32 %89 to i8
  %91 = load ptr, ptr %10, align 8, !tbaa !10
  %92 = getelementptr inbounds i8, ptr %91, i64 1
  store i8 %90, ptr %92, align 1, !tbaa !14
  %93 = load ptr, ptr %8, align 8, !tbaa !10
  %94 = getelementptr inbounds i8, ptr %93, i64 1
  %95 = load i8, ptr %94, align 1, !tbaa !14
  %96 = zext i8 %95 to i32
  %97 = and i32 %96, 63
  %98 = or i32 128, %97
  %99 = trunc i32 %98 to i8
  %100 = load ptr, ptr %10, align 8, !tbaa !10
  %101 = getelementptr inbounds i8, ptr %100, i64 2
  store i8 %99, ptr %101, align 1, !tbaa !14
  store i64 3, ptr %6, align 8
  br label %168

102:                                              ; preds = %60
  call void @llvm.lifetime.start.p0(i64 4, ptr %12) #3
  %103 = load ptr, ptr %8, align 8, !tbaa !10
  %104 = getelementptr inbounds i8, ptr %103, i64 0
  %105 = load i8, ptr %104, align 1, !tbaa !14
  %106 = zext i8 %105 to i32
  %107 = and i32 %106, 3
  %108 = shl i32 %107, 2
  %109 = load ptr, ptr %8, align 8, !tbaa !10
  %110 = getelementptr inbounds i8, ptr %109, i64 1
  %111 = load i8, ptr %110, align 1, !tbaa !14
  %112 = zext i8 %111 to i32
  %113 = ashr i32 %112, 6
  %114 = or i32 %108, %113
  %115 = add nsw i32 %114, 1
  store i32 %115, ptr %12, align 4, !tbaa !15
  %116 = load i32, ptr %12, align 4, !tbaa !15
  %117 = lshr i32 %116, 2
  %118 = or i32 240, %117
  %119 = trunc i32 %118 to i8
  %120 = load ptr, ptr %10, align 8, !tbaa !10
  %121 = getelementptr inbounds i8, ptr %120, i64 0
  store i8 %119, ptr %121, align 1, !tbaa !14
  %122 = load i32, ptr %12, align 4, !tbaa !15
  %123 = and i32 %122, 3
  %124 = shl i32 %123, 4
  %125 = or i32 128, %124
  %126 = load ptr, ptr %8, align 8, !tbaa !10
  %127 = getelementptr inbounds i8, ptr %126, i64 1
  %128 = load i8, ptr %127, align 1, !tbaa !14
  %129 = zext i8 %128 to i32
  %130 = ashr i32 %129, 2
  %131 = and i32 %130, 15
  %132 = or i32 %125, %131
  %133 = trunc i32 %132 to i8
  %134 = load ptr, ptr %10, align 8, !tbaa !10
  %135 = getelementptr inbounds i8, ptr %134, i64 1
  store i8 %133, ptr %135, align 1, !tbaa !14
  %136 = load ptr, ptr %8, align 8, !tbaa !10
  %137 = getelementptr inbounds i8, ptr %136, i64 1
  %138 = load i8, ptr %137, align 1, !tbaa !14
  %139 = zext i8 %138 to i32
  %140 = and i32 %139, 3
  %141 = shl i32 %140, 4
  %142 = or i32 128, %141
  %143 = load ptr, ptr %8, align 8, !tbaa !10
  %144 = getelementptr inbounds i8, ptr %143, i64 2
  %145 = load i8, ptr %144, align 1, !tbaa !14
  %146 = zext i8 %145 to i32
  %147 = and i32 %146, 3
  %148 = shl i32 %147, 2
  %149 = or i32 %142, %148
  %150 = load ptr, ptr %8, align 8, !tbaa !10
  %151 = getelementptr inbounds i8, ptr %150, i64 3
  %152 = load i8, ptr %151, align 1, !tbaa !14
  %153 = zext i8 %152 to i32
  %154 = ashr i32 %153, 6
  %155 = or i32 %149, %154
  %156 = trunc i32 %155 to i8
  %157 = load ptr, ptr %10, align 8, !tbaa !10
  %158 = getelementptr inbounds i8, ptr %157, i64 2
  store i8 %156, ptr %158, align 1, !tbaa !14
  %159 = load ptr, ptr %8, align 8, !tbaa !10
  %160 = getelementptr inbounds i8, ptr %159, i64 3
  %161 = load i8, ptr %160, align 1, !tbaa !14
  %162 = zext i8 %161 to i32
  %163 = and i32 %162, 63
  %164 = or i32 128, %163
  %165 = trunc i32 %164 to i8
  %166 = load ptr, ptr %10, align 8, !tbaa !10
  %167 = getelementptr inbounds i8, ptr %166, i64 3
  store i8 %165, ptr %167, align 1, !tbaa !14
  store i64 4, ptr %6, align 8
  call void @llvm.lifetime.end.p0(i64 4, ptr %12) #3
  br label %168

168:                                              ; preds = %102, %67, %35, %23
  %169 = load i64, ptr %6, align 8
  ret i64 %169
}