; Function Attrs: mustprogress nofree norecurse nosync nounwind sspstrong willreturn memory(argmem: readwrite) uwtable
define internal range(i64 1, 5) i64 @fun_so_from_utf_16be(ptr readnone captures(none) %0, ptr noundef readonly captures(none) %1, i64 %2, ptr noundef writeonly captures(none) initializes((0, 1)) %3, i64 %4) #2 {
  %6 = load i8, ptr %1, align 1, !tbaa !6
  %.not = icmp eq i8 %6, 0
  br i1 %.not, label %7, label %12

7:                                                ; preds = %5
  %8 = getelementptr inbounds nuw i8, ptr %1, i64 1
  %9 = load i8, ptr %8, align 1, !tbaa !6
  %10 = icmp sgt i8 %9, -1
  br i1 %10, label %11, label %.thread

11:                                               ; preds = %7
  store i8 %9, ptr %3, align 1, !tbaa !6
  br label %76

12:                                               ; preds = %5
  %13 = icmp ult i8 %6, 8
  br i1 %13, label %..thread_crit_edge, label %22

..thread_crit_edge:                               ; preds = %12
  %.phi.trans.insert = getelementptr inbounds nuw i8, ptr %1, i64 1
  %.pre = load i8, ptr %.phi.trans.insert, align 1, !tbaa !6
  br label %.thread

.thread:                                          ; preds = %..thread_crit_edge, %7
  %14 = phi i8 [ %.pre, %..thread_crit_edge ], [ %9, %7 ]
  %15 = getelementptr inbounds nuw i8, ptr %1, i64 1
  %16 = tail call i8 @llvm.fshl.i8(i8 %6, i8 %14, i8 2)
  %17 = or disjoint i8 %16, -64
  store i8 %17, ptr %3, align 1, !tbaa !6
  %18 = load i8, ptr %15, align 1, !tbaa !6
  %19 = and i8 %18, 63
  %20 = or disjoint i8 %19, -128
  %21 = getelementptr inbounds nuw i8, ptr %3, i64 1
  store i8 %20, ptr %21, align 1, !tbaa !6
  br label %76

22:                                               ; preds = %12
  %23 = and i8 %6, -8
  %.not32 = icmp eq i8 %23, -40
  br i1 %.not32, label %40, label %24

24:                                               ; preds = %22
  %25 = lshr i8 %6, 4
  %26 = or disjoint i8 %25, -32
  store i8 %26, ptr %3, align 1, !tbaa !6
  %27 = load i8, ptr %1, align 1, !tbaa !6
  %28 = shl i8 %27, 2
  %29 = and i8 %28, 60
  %30 = getelementptr inbounds nuw i8, ptr %1, i64 1
  %31 = load i8, ptr %30, align 1, !tbaa !6
  %32 = lshr i8 %31, 6
  %33 = or disjoint i8 %32, %29
  %34 = or disjoint i8 %33, -128
  %35 = getelementptr inbounds nuw i8, ptr %3, i64 1
  store i8 %34, ptr %35, align 1, !tbaa !6
  %36 = load i8, ptr %30, align 1, !tbaa !6
  %37 = and i8 %36, 63
  %38 = or disjoint i8 %37, -128
  %39 = getelementptr inbounds nuw i8, ptr %3, i64 2
  store i8 %38, ptr %39, align 1, !tbaa !6
  br label %76

40:                                               ; preds = %22
  %41 = shl i8 %6, 2
  %42 = and i8 %41, 12
  %43 = getelementptr inbounds nuw i8, ptr %1, i64 1
  %44 = load i8, ptr %43, align 1, !tbaa !6
  %45 = lshr i8 %44, 6
  %46 = or disjoint i8 %45, %42
  %47 = add nuw nsw i8 %46, 1
  %48 = lshr i8 %47, 2
  %49 = or disjoint i8 %48, -16
  store i8 %49, ptr %3, align 1, !tbaa !6
  %50 = load i8, ptr %43, align 1, !tbaa !6
  %51 = lshr i8 %50, 2
  %52 = and i8 %51, 15
  %53 = shl i8 %47, 4
  %54 = and i8 %53, 48
  %55 = or disjoint i8 %52, %54
  %56 = or disjoint i8 %55, -128
  %57 = getelementptr inbounds nuw i8, ptr %3, i64 1
  store i8 %56, ptr %57, align 1, !tbaa !6
  %58 = load i8, ptr %43, align 1, !tbaa !6
  %59 = shl i8 %58, 4
  %60 = and i8 %59, 48
  %61 = getelementptr inbounds nuw i8, ptr %1, i64 2
  %62 = load i8, ptr %61, align 1, !tbaa !6
  %63 = shl i8 %62, 2
  %64 = and i8 %63, 12
  %65 = getelementptr inbounds nuw i8, ptr %1, i64 3
  %66 = load i8, ptr %65, align 1, !tbaa !6
  %67 = lshr i8 %66, 6
  %68 = or disjoint i8 %60, %64
  %69 = or disjoint i8 %68, %67
  %70 = or disjoint i8 %69, -128
  %71 = getelementptr inbounds nuw i8, ptr %3, i64 2
  store i8 %70, ptr %71, align 1, !tbaa !6
  %72 = load i8, ptr %65, align 1, !tbaa !6
  %73 = and i8 %72, 63
  %74 = or disjoint i8 %73, -128
  %75 = getelementptr inbounds nuw i8, ptr %3, i64 3
  store i8 %74, ptr %75, align 1, !tbaa !6
  br label %76

76:                                               ; preds = %40, %24, %.thread, %11
  %.0 = phi i64 [ 2, %.thread ], [ 3, %24 ], [ 4, %40 ], [ 1, %11 ]
  ret i64 %.0
}